target datalayout = "e-m:e-p270:32:32-p271:32:32-p272:64:64-i64:64-i128:128-f80:128-n8:16:32:64-S128"
target triple = "x86_64-pc-linux-gnu"

%struct._gui_collapsible_section_t = type { ptr, ptr, ptr, ptr, ptr, ptr, ptr }

; Function Attrs: inlinehint nounwind uwtable
define internal ptr @DTGTK_EXPANDER(ptr noundef %0) #4 {
  %2 = alloca ptr, align 8
  store ptr %0, ptr %2, align 8, !tbaa !99
  %3 = load ptr, ptr %2, align 8, !tbaa !99
  %4 = call i64 @dtgtk_expander_get_type()
  %5 = call ptr @g_type_check_instance_cast(ptr noundef %3, i64 noundef %4)
  ret ptr %5
}

; Function Attrs: inlinehint nounwind uwtable
define internal ptr @DTGTK_TOGGLEBUTTON(ptr noundef %0) #4 {
  %2 = alloca ptr, align 8
  store ptr %0, ptr %2, align 8, !tbaa !99
  %3 = load ptr, ptr %2, align 8, !tbaa !99
  %4 = call i64 @dtgtk_togglebutton_get_type()
  %5 = call ptr @g_type_check_instance_cast(ptr noundef %3, i64 noundef %4)
  ret ptr %5
}

; Function Attrs: nounwind uwtable
define void @dt_gui_update_collapsible_section(ptr noundef %0) #0 {
  %2 = alloca ptr, align 8
  %3 = alloca i32, align 4
  store ptr %0, ptr %2, align 8, !tbaa !329
  call void @llvm.lifetime.start.p0(i64 4, ptr %3) #15
  %4 = load ptr, ptr %2, align 8, !tbaa !329
  %5 = getelementptr inbounds nuw %struct._gui_collapsible_section_t, ptr %4, i32 0, i32 2
  %6 = load ptr, ptr %5, align 8, !tbaa !331
  %7 = call i64 @gtk_toggle_button_get_type() #16
  %8 = call ptr @g_type_check_instance_cast(ptr noundef %6, i64 noundef %7)
  %9 = call i32 @gtk_toggle_button_get_active(ptr noundef %8)
  store i32 %9, ptr %3, align 4, !tbaa !17
  %10 = load ptr, ptr %2, align 8, !tbaa !329
  %11 = getelementptr inbounds nuw %struct._gui_collapsible_section_t, ptr %10, i32 0, i32 2
  %12 = load ptr, ptr %11, align 8, !tbaa !331
  %13 = call ptr @DTGTK_TOGGLEBUTTON(ptr noundef %12)
  %14 = load i32, ptr %3, align 4, !tbaa !17
  %15 = icmp ne i32 %14, 0
  %16 = select i1 %15, i32 2, i32 4
  call void @dtgtk_togglebutton_set_paint(ptr noundef %13, ptr noundef @dtgtk_cairo_paint_solid_arrow, i32 noundef %16, ptr noundef null)
  %17 = load ptr, ptr %2, align 8, !tbaa !329
  %18 = getelementptr inbounds nuw %struct._gui_collapsible_section_t, ptr %17, i32 0, i32 3
  %19 = load ptr, ptr %18, align 8, !tbaa !334
  %20 = call ptr @DTGTK_EXPANDER(ptr noundef %19)
  %21 = load i32, ptr %3, align 4, !tbaa !17
  call void @dtgtk_expander_set_expanded(ptr noundef %20, i32 noundef %21)
  %22 = load ptr, ptr %2, align 8, !tbaa !329
  %23 = getelementptr inbounds nuw %struct._gui_collapsible_section_t, ptr %22, i32 0, i32 5
  %24 = load ptr, ptr %23, align 8, !tbaa !335
  %25 = call i64 @gtk_widget_get_type() #16
  %26 = call ptr @g_type_check_instance_cast(ptr noundef %24, i64 noundef %25)
  %27 = load i32, ptr %3, align 4, !tbaa !17
  call void @gtk_widget_set_visible(ptr noundef %26, i32 noundef %27)
  call void @llvm.lifetime.end.p0(i64 4, ptr %3) #15
  ret void
}