; Function Attrs: nounwind uwtable
define void @dt_gui_update_collapsible_section(ptr noundef readonly captures(none) %0) local_unnamed_addr #0 {
  %2 = getelementptr inbounds nuw i8, ptr %0, i64 16
  %3 = load ptr, ptr %2, align 8, !tbaa !252
  %4 = tail call i64 @gtk_toggle_button_get_type() #19
  %5 = tail call ptr @g_type_check_instance_cast(ptr noundef %3, i64 noundef %4) #18
  %6 = tail call i32 @gtk_toggle_button_get_active(ptr noundef %5) #18
  %7 = load ptr, ptr %2, align 8, !tbaa !252
  %8 = tail call i64 @dtgtk_togglebutton_get_type() #18
  %9 = tail call ptr @g_type_check_instance_cast(ptr noundef %7, i64 noundef %8) #18
  %.not = icmp eq i32 %6, 0
  %10 = select i1 %.not, i32 4, i32 2
  tail call void @dtgtk_togglebutton_set_paint(ptr noundef %9, ptr noundef nonnull @dtgtk_cairo_paint_solid_arrow, i32 noundef %10, ptr noundef null) #18
  %11 = getelementptr inbounds nuw i8, ptr %0, i64 24
  %12 = load ptr, ptr %11, align 8, !tbaa !255
  %13 = tail call i64 @dtgtk_expander_get_type() #18
  %14 = tail call ptr @g_type_check_instance_cast(ptr noundef %12, i64 noundef %13) #18
  tail call void @dtgtk_expander_set_expanded(ptr noundef %14, i32 noundef %6) #18
  %15 = getelementptr inbounds nuw i8, ptr %0, i64 40
  %16 = load ptr, ptr %15, align 8, !tbaa !256
  %17 = tail call i64 @gtk_widget_get_type() #19
  %18 = tail call ptr @g_type_check_instance_cast(ptr noundef %16, i64 noundef %17) #18
  tail call void @gtk_widget_set_visible(ptr noundef %18, i32 noundef %6) #18
  ret void
}